target datalayout = "e-m:e-p270:32:32-p271:32:32-p272:64:64-i64:64-i128:128-f80:128-n8:16:32:64-S128"
target triple = "x86_64-pc-linux-gnu"

%union.AVRefStructOpaque = type { ptr }
%struct.RefCount = type { i64, %union.AVRefStructOpaque, ptr, ptr }
%struct.AVRefStructPool = type { i64, %union.AVRefStructOpaque, ptr, ptr, ptr, ptr, i32, i32, i32, i64, ptr, %union.pthread_mutex_t }
%union.pthread_mutex_t = type { %struct.__pthread_mutex_s }
%struct.__pthread_mutex_s = type { i32, i32, i32, i32, i32, i16, i16, %struct.__pthread_internal_list }
%struct.__pthread_internal_list = type { ptr, ptr }

; Function Attrs: nounwind uwtable
define internal void @refcount_init(ptr noundef %0, ptr %1, ptr noundef %2) #0 {
  %4 = alloca %union.AVRefStructOpaque, align 8
  %5 = alloca ptr, align 8
  %6 = alloca ptr, align 8
  %7 = getelementptr inbounds nuw %union.AVRefStructOpaque, ptr %4, i32 0, i32 0
  store ptr %1, ptr %7, align 8
  store ptr %0, ptr %5, align 8, !tbaa !12
  store ptr %2, ptr %6, align 8, !tbaa !10
  %8 = load ptr, ptr %5, align 8, !tbaa !12
  %9 = getelementptr inbounds nuw %struct.RefCount, ptr %8, i32 0, i32 0
  store i64 1, ptr %9, align 8, !tbaa !14
  %10 = load ptr, ptr %5, align 8, !tbaa !12
  %11 = getelementptr inbounds nuw %struct.RefCount, ptr %10, i32 0, i32 1
  call void @llvm.memcpy.p0.p0.i64(ptr align 8 %11, ptr align 8 %4, i64 8, i1 false), !tbaa.struct !15
  %12 = load ptr, ptr %6, align 8, !tbaa !10
  %13 = load ptr, ptr %5, align 8, !tbaa !12
  %14 = getelementptr inbounds nuw %struct.RefCount, ptr %13, i32 0, i32 2
  store ptr %12, ptr %14, align 8, !tbaa !16
  %15 = load ptr, ptr %5, align 8, !tbaa !12
  %16 = getelementptr inbounds nuw %struct.RefCount, ptr %15, i32 0, i32 3
  store ptr @av_free, ptr %16, align 8, !tbaa !18
  ret void
}

; Function Attrs: nounwind uwtable
define ptr @av_refstruct_alloc_ext_c(i64 noundef %0, i32 noundef %1, ptr %2, ptr noundef %3) #0 {
  %5 = alloca ptr, align 8
  %6 = alloca %union.AVRefStructOpaque, align 8
  %7 = alloca i64, align 8
  %8 = alloca i32, align 4
  %9 = alloca ptr, align 8
  %10 = alloca ptr, align 8
  %11 = alloca ptr, align 8
  %12 = alloca i32, align 4
  %13 = getelementptr inbounds nuw %union.AVRefStructOpaque, ptr %6, i32 0, i32 0
  store ptr %2, ptr %13, align 8
  store i64 %0, ptr %7, align 8, !tbaa !4
  store i32 %1, ptr %8, align 4, !tbaa !8
  store ptr %3, ptr %9, align 8, !tbaa !10
  call void @llvm.lifetime.start.p0(i64 8, ptr %10) #7
  call void @llvm.lifetime.start.p0(i64 8, ptr %11) #7
  %14 = load i64, ptr %7, align 8, !tbaa !4
  %15 = icmp ugt i64 %14, -33
  br i1 %15, label %16, label %17

16:                                               ; preds = %4
  store ptr null, ptr %5, align 8
  store i32 1, ptr %12, align 4
  br label %39

17:                                               ; preds = %4
  %18 = load i64, ptr %7, align 8, !tbaa !4
  %19 = add i64 %18, 32
  %20 = call noalias ptr @av_malloc(i64 noundef %19)
  store ptr %20, ptr %10, align 8, !tbaa !10
  %21 = load ptr, ptr %10, align 8, !tbaa !10
  %22 = icmp ne ptr %21, null
  br i1 %22, label %24, label %23

23:                                               ; preds = %17
  store ptr null, ptr %5, align 8
  store i32 1, ptr %12, align 4
  br label %39

24:                                               ; preds = %17
  %25 = load ptr, ptr %10, align 8, !tbaa !10
  %26 = load ptr, ptr %9, align 8, !tbaa !10
  %27 = getelementptr inbounds nuw %union.AVRefStructOpaque, ptr %6, i32 0, i32 0
  %28 = load ptr, ptr %27, align 8
  call void @refcount_init(ptr noundef %25, ptr %28, ptr noundef %26)
  %29 = load ptr, ptr %10, align 8, !tbaa !10
  %30 = call ptr @get_userdata(ptr noundef %29)
  store ptr %30, ptr %11, align 8, !tbaa !10
  %31 = load i32, ptr %8, align 4, !tbaa !8
  %32 = and i32 %31, 1
  %33 = icmp ne i32 %32, 0
  br i1 %33, label %37, label %34

34:                                               ; preds = %24
  %35 = load ptr, ptr %11, align 8, !tbaa !10
  %36 = load i64, ptr %7, align 8, !tbaa !4
  call void @llvm.memset.p0.i64(ptr align 1 %35, i8 0, i64 %36, i1 false)
  br label %37

37:                                               ; preds = %34, %24
  %38 = load ptr, ptr %11, align 8, !tbaa !10
  store ptr %38, ptr %5, align 8
  store i32 1, ptr %12, align 4
  br label %39

39:                                               ; preds = %37, %23, %16
  call void @llvm.lifetime.end.p0(i64 8, ptr %11) #7
  call void @llvm.lifetime.end.p0(i64 8, ptr %10) #7
  %40 = load ptr, ptr %5, align 8
  ret ptr %40
}

; Function Attrs: nounwind uwtable
define internal ptr @get_refcount(ptr noundef %0) #0 {
  %2 = alloca ptr, align 8
  %3 = alloca ptr, align 8
  store ptr %0, ptr %2, align 8, !tbaa !10
  call void @llvm.lifetime.start.p0(i64 8, ptr %3) #7
  %4 = load ptr, ptr %2, align 8, !tbaa !10
  %5 = getelementptr inbounds i8, ptr %4, i64 -32
  store ptr %5, ptr %3, align 8, !tbaa !12
  %6 = load ptr, ptr %3, align 8, !tbaa !12
  call void @llvm.lifetime.end.p0(i64 8, ptr %3) #7
  ret ptr %6
}

; Function Attrs: inlinehint nounwind uwtable
define internal ptr @av_refstruct_alloc_ext(i64 noundef %0, i32 noundef %1, ptr noundef %2, ptr noundef %3) #5 {
  %5 = alloca i64, align 8
  %6 = alloca i32, align 4
  %7 = alloca ptr, align 8
  %8 = alloca ptr, align 8
  %9 = alloca %union.AVRefStructOpaque, align 8
  store i64 %0, ptr %5, align 8, !tbaa !4
  store i32 %1, ptr %6, align 4, !tbaa !8
  store ptr %2, ptr %7, align 8, !tbaa !10
  store ptr %3, ptr %8, align 8, !tbaa !10
  %10 = load i64, ptr %5, align 8, !tbaa !4
  %11 = load i32, ptr %6, align 4, !tbaa !8
  %12 = load ptr, ptr %7, align 8, !tbaa !10
  store ptr %12, ptr %9, align 8, !tbaa !14
  %13 = load ptr, ptr %8, align 8, !tbaa !10
  %14 = getelementptr inbounds nuw %union.AVRefStructOpaque, ptr %9, i32 0, i32 0
  %15 = load ptr, ptr %14, align 8
  %16 = call ptr @av_refstruct_alloc_ext_c(i64 noundef %10, i32 noundef %11, ptr %15, ptr noundef %13)
  ret ptr %16
}

; Function Attrs: nounwind uwtable
define internal ptr @get_userdata(ptr noundef %0) #0 {
  %2 = alloca ptr, align 8
  store ptr %0, ptr %2, align 8, !tbaa !10
  %3 = load ptr, ptr %2, align 8, !tbaa !10
  %4 = getelementptr inbounds nuw i8, ptr %3, i64 32
  ret ptr %4
}

; Function Attrs: nounwind uwtable
define internal i32 @refstruct_pool_get_ext(ptr noundef %0, ptr noundef %1) #0 {
  %3 = alloca i32, align 4
  %4 = alloca ptr, align 8
  %5 = alloca ptr, align 8
  %6 = alloca ptr, align 8
  %7 = alloca ptr, align 8
  %8 = alloca ptr, align 8
  %9 = alloca ptr, align 8
  %10 = alloca i32, align 4
  %11 = alloca i32, align 4
  %12 = alloca i64, align 8
  %13 = alloca i64, align 8
  store ptr %0, ptr %4, align 8, !tbaa !10
  store ptr %1, ptr %5, align 8, !tbaa !19
  call void @llvm.lifetime.start.p0(i64 8, ptr %6) #7
  store ptr null, ptr %6, align 8, !tbaa !10
  %14 = load ptr, ptr %4, align 8, !tbaa !10
  store ptr null, ptr %7, align 8, !tbaa !10
  call void @llvm.memcpy.p0.p0.i64(ptr align 1 %14, ptr align 8 %7, i64 8, i1 false)
  %15 = load ptr, ptr %5, align 8, !tbaa !19
  %16 = getelementptr inbounds nuw %struct.AVRefStructPool, ptr %15, i32 0, i32 11
  %17 = call i32 @pthread_mutex_lock(ptr noundef %16) #7
  %18 = load ptr, ptr %5, align 8, !tbaa !19
  %19 = getelementptr inbounds nuw %struct.AVRefStructPool, ptr %18, i32 0, i32 10
  %20 = load ptr, ptr %19, align 8, !tbaa !21
  %21 = icmp ne ptr %20, null
  br i1 %21, label %22, label %38

22:                                               ; preds = %2
  call void @llvm.lifetime.start.p0(i64 8, ptr %8) #7
  %23 = load ptr, ptr %5, align 8, !tbaa !19
  %24 = getelementptr inbounds nuw %struct.AVRefStructPool, ptr %23, i32 0, i32 10
  %25 = load ptr, ptr %24, align 8, !tbaa !21
  store ptr %25, ptr %8, align 8, !tbaa !12
  %26 = load ptr, ptr %8, align 8, !tbaa !12
  %27 = call ptr @get_userdata(ptr noundef %26)
  store ptr %27, ptr %6, align 8, !tbaa !10
  %28 = load ptr, ptr %8, align 8, !tbaa !12
  %29 = getelementptr inbounds nuw %struct.RefCount, ptr %28, i32 0, i32 1
  %30 = load ptr, ptr %29, align 8, !tbaa !14
  %31 = load ptr, ptr %5, align 8, !tbaa !19
  %32 = getelementptr inbounds nuw %struct.AVRefStructPool, ptr %31, i32 0, i32 10
  store ptr %30, ptr %32, align 8, !tbaa !21
  %33 = load ptr, ptr %5, align 8, !tbaa !19
  %34 = load ptr, ptr %8, align 8, !tbaa !12
  %35 = getelementptr inbounds nuw %struct.RefCount, ptr %34, i32 0, i32 1
  store ptr %33, ptr %35, align 8, !tbaa !14
  %36 = load ptr, ptr %8, align 8, !tbaa !12
  %37 = getelementptr inbounds nuw %struct.RefCount, ptr %36, i32 0, i32 0
  store i64 1, ptr %37, align 8, !tbaa !14
  call void @llvm.lifetime.end.p0(i64 8, ptr %8) #7
  br label %38

38:                                               ; preds = %22, %2
  %39 = load ptr, ptr %5, align 8, !tbaa !19
  %40 = getelementptr inbounds nuw %struct.AVRefStructPool, ptr %39, i32 0, i32 11
  %41 = call i32 @pthread_mutex_unlock(ptr noundef %40) #7
  %42 = load ptr, ptr %6, align 8, !tbaa !10
  %43 = icmp ne ptr %42, null
  br i1 %43, label %123, label %44

44:                                               ; preds = %38
  call void @llvm.lifetime.start.p0(i64 8, ptr %9) #7
  %45 = load ptr, ptr %5, align 8, !tbaa !19
  %46 = getelementptr inbounds nuw %struct.AVRefStructPool, ptr %45, i32 0, i32 0
  %47 = load i64, ptr %46, align 8, !tbaa !23
  %48 = load ptr, ptr %5, align 8, !tbaa !19
  %49 = getelementptr inbounds nuw %struct.AVRefStructPool, ptr %48, i32 0, i32 7
  %50 = load i32, ptr %49, align 4, !tbaa !24
  %51 = load ptr, ptr %5, align 8, !tbaa !19
  %52 = load ptr, ptr %5, align 8, !tbaa !19
  %53 = getelementptr inbounds nuw %struct.AVRefStructPool, ptr %52, i32 0, i32 3
  %54 = load ptr, ptr %53, align 8, !tbaa !25
  %55 = icmp ne ptr %54, null
  %56 = select i1 %55, ptr @pool_reset_entry, ptr null
  %57 = call ptr @av_refstruct_alloc_ext(i64 noundef %47, i32 noundef %50, ptr noundef %51, ptr noundef %56)
  store ptr %57, ptr %6, align 8, !tbaa !10
  %58 = load ptr, ptr %6, align 8, !tbaa !10
  %59 = icmp ne ptr %58, null
  br i1 %59, label %61, label %60

60:                                               ; preds = %44
  store i32 -12, ptr %3, align 4
  store i32 1, ptr %10, align 4
  br label %120

61:                                               ; preds = %44
  %62 = load ptr, ptr %6, align 8, !tbaa !10
  %63 = call ptr @get_refcount(ptr noundef %62)
  store ptr %63, ptr %9, align 8, !tbaa !12
  %64 = load ptr, ptr %9, align 8, !tbaa !12
  %65 = getelementptr inbounds nuw %struct.RefCount, ptr %64, i32 0, i32 3
  store ptr @pool_return_entry, ptr %65, align 8, !tbaa !18
  %66 = load ptr, ptr %5, align 8, !tbaa !19
  %67 = getelementptr inbounds nuw %struct.AVRefStructPool, ptr %66, i32 0, i32 2
  %68 = load ptr, ptr %67, align 8, !tbaa !26
  %69 = icmp ne ptr %68, null
  br i1 %69, label %70, label %119

70:                                               ; preds = %61
  call void @llvm.lifetime.start.p0(i64 4, ptr %11) #7
  %71 = load ptr, ptr %5, align 8, !tbaa !19
  %72 = getelementptr inbounds nuw %struct.AVRefStructPool, ptr %71, i32 0, i32 2
  %73 = load ptr, ptr %72, align 8, !tbaa !26
  %74 = load ptr, ptr %5, align 8, !tbaa !19
  %75 = getelementptr inbounds nuw %struct.AVRefStructPool, ptr %74, i32 0, i32 1
  %76 = load ptr, ptr %6, align 8, !tbaa !10
  %77 = getelementptr inbounds nuw %union.AVRefStructOpaque, ptr %75, i32 0, i32 0
  %78 = load ptr, ptr %77, align 8
  %79 = call i32 %73(ptr %78, ptr noundef %76)
  store i32 %79, ptr %11, align 4, !tbaa !8
  %80 = load i32, ptr %11, align 4, !tbaa !8
  %81 = icmp slt i32 %80, 0
  br i1 %81, label %82, label %115

82:                                               ; preds = %70
  %83 = load ptr, ptr %5, align 8, !tbaa !19
  %84 = getelementptr inbounds nuw %struct.AVRefStructPool, ptr %83, i32 0, i32 8
  %85 = load i32, ptr %84, align 8, !tbaa !27
  %86 = and i32 %85, 65536
  %87 = icmp ne i32 %86, 0
  br i1 %87, label %88, label %97

88:                                               ; preds = %82
  %89 = load ptr, ptr %5, align 8, !tbaa !19
  %90 = getelementptr inbounds nuw %struct.AVRefStructPool, ptr %89, i32 0, i32 3
  %91 = load ptr, ptr %90, align 8, !tbaa !25
  %92 = load ptr, ptr %5, align 8, !tbaa !19
  %93 = getelementptr inbounds nuw %struct.AVRefStructPool, ptr %92, i32 0, i32 1
  %94 = load ptr, ptr %6, align 8, !tbaa !10
  %95 = getelementptr inbounds nuw %union.AVRefStructOpaque, ptr %93, i32 0, i32 0
  %96 = load ptr, ptr %95, align 8
  call void %91(ptr %96, ptr noundef %94)
  br label %97

97:                                               ; preds = %88, %82
  %98 = load ptr, ptr %5, align 8, !tbaa !19
  %99 = getelementptr inbounds nuw %struct.AVRefStructPool, ptr %98, i32 0, i32 8
  %100 = load i32, ptr %99, align 8, !tbaa !27
  %101 = and i32 %100, 131072
  %102 = icmp ne i32 %101, 0
  br i1 %102, label %103, label %112

103:                                              ; preds = %97
  %104 = load ptr, ptr %5, align 8, !tbaa !19
  %105 = getelementptr inbounds nuw %struct.AVRefStructPool, ptr %104, i32 0, i32 4
  %106 = load ptr, ptr %105, align 8, !tbaa !28
  %107 = load ptr, ptr %5, align 8, !tbaa !19
  %108 = getelementptr inbounds nuw %struct.AVRefStructPool, ptr %107, i32 0, i32 1
  %109 = load ptr, ptr %6, align 8, !tbaa !10
  %110 = getelementptr inbounds nuw %union.AVRefStructOpaque, ptr %108, i32 0, i32 0
  %111 = load ptr, ptr %110, align 8
  call void %106(ptr %111, ptr noundef %109)
  br label %112

112:                                              ; preds = %103, %97
  %113 = load ptr, ptr %9, align 8, !tbaa !12
  call void @av_free(ptr noundef %113)
  %114 = load i32, ptr %11, align 4, !tbaa !8
  store i32 %114, ptr %3, align 4
  store i32 1, ptr %10, align 4
  br label %116

115:                                              ; preds = %70
  store i32 0, ptr %10, align 4
  br label %116

116:                                              ; preds = %115, %112
  call void @llvm.lifetime.end.p0(i64 4, ptr %11) #7
  %117 = load i32, ptr %10, align 4
  switch i32 %117, label %120 [
    i32 0, label %118
  ]

118:                                              ; preds = %116
  br label %119

119:                                              ; preds = %118, %61
  store i32 0, ptr %10, align 4
  br label %120

120:                                              ; preds = %119, %116, %60
  call void @llvm.lifetime.end.p0(i64 8, ptr %9) #7
  %121 = load i32, ptr %10, align 4
  switch i32 %121, label %140 [
    i32 0, label %122
  ]

122:                                              ; preds = %120
  br label %123

123:                                              ; preds = %122, %38
  %124 = load ptr, ptr %5, align 8, !tbaa !19
  %125 = getelementptr inbounds nuw %struct.AVRefStructPool, ptr %124, i32 0, i32 9
  store i64 1, ptr %12, align 8, !tbaa !4
  %126 = load i64, ptr %12, align 8
  %127 = atomicrmw add ptr %125, i64 %126 monotonic, align 8
  store i64 %127, ptr %13, align 8
  %128 = load ptr, ptr %5, align 8, !tbaa !19
  %129 = getelementptr inbounds nuw %struct.AVRefStructPool, ptr %128, i32 0, i32 8
  %130 = load i32, ptr %129, align 8, !tbaa !27
  %131 = and i32 %130, 262144
  %132 = icmp ne i32 %131, 0
  br i1 %132, label %133, label %138

133:                                              ; preds = %123
  %134 = load ptr, ptr %6, align 8, !tbaa !10
  %135 = load ptr, ptr %5, align 8, !tbaa !19
  %136 = getelementptr inbounds nuw %struct.AVRefStructPool, ptr %135, i32 0, i32 0
  %137 = load i64, ptr %136, align 8, !tbaa !23
  call void @llvm.memset.p0.i64(ptr align 1 %134, i8 0, i64 %137, i1 false)
  br label %138

138:                                              ; preds = %133, %123
  %139 = load ptr, ptr %4, align 8, !tbaa !10
  call void @llvm.memcpy.p0.p0.i64(ptr align 1 %139, ptr align 8 %6, i64 8, i1 false)
  store i32 0, ptr %3, align 4
  store i32 1, ptr %10, align 4
  br label %140

140:                                              ; preds = %138, %120
  call void @llvm.lifetime.end.p0(i64 8, ptr %6) #7
  %141 = load i32, ptr %3, align 4
  ret i32 %141
}

; Function Attrs: nounwind uwtable
define ptr @av_refstruct_pool_get(ptr noundef %0) #0 {
  %2 = alloca ptr, align 8
  %3 = alloca ptr, align 8
  store ptr %0, ptr %2, align 8, !tbaa !19
  call void @llvm.lifetime.start.p0(i64 8, ptr %3) #7
  %4 = load ptr, ptr %2, align 8, !tbaa !19
  %5 = call i32 @refstruct_pool_get_ext(ptr noundef %3, ptr noundef %4)
  %6 = load ptr, ptr %3, align 8, !tbaa !10
  call void @llvm.lifetime.end.p0(i64 8, ptr %3) #7
  ret ptr %6
}