; Function Attrs: nounwind uwtable
define ptr @av_refstruct_pool_get(ptr noundef %0) local_unnamed_addr #0 {
  %2 = getelementptr inbounds nuw i8, ptr %0, i64 80
  %3 = tail call i32 @pthread_mutex_lock(ptr noundef nonnull %2) #5
  %4 = getelementptr inbounds nuw i8, ptr %0, i64 72
  %5 = load ptr, ptr %4, align 8, !tbaa !11
  %.not.i = icmp eq ptr %5, null
  br i1 %.not.i, label %11, label %6

6:                                                ; preds = %1
  %7 = getelementptr inbounds nuw i8, ptr %5, i64 32
  %8 = getelementptr inbounds nuw i8, ptr %5, i64 8
  %9 = load ptr, ptr %8, align 8, !tbaa !4
  store ptr %9, ptr %4, align 8, !tbaa !11
  store ptr %0, ptr %8, align 8, !tbaa !4
  store i64 1, ptr %5, align 8, !tbaa !4
  %10 = tail call i32 @pthread_mutex_unlock(ptr noundef nonnull %2) #5
  br label %.critedge.thread.i

11:                                               ; preds = %1
  %12 = tail call i32 @pthread_mutex_unlock(ptr noundef nonnull %2) #5
  %13 = load i64, ptr %0, align 8, !tbaa !16
  %14 = getelementptr inbounds nuw i8, ptr %0, i64 52
  %15 = load i32, ptr %14, align 4, !tbaa !17
  %16 = getelementptr inbounds nuw i8, ptr %0, i64 24
  %17 = load ptr, ptr %16, align 8, !tbaa !18
  %.not52.i = icmp eq ptr %17, null
  %18 = select i1 %.not52.i, ptr null, ptr @pool_reset_entry
  %19 = icmp ugt i64 %13, -33
  br i1 %19, label %refstruct_pool_get_ext.exit, label %20

20:                                               ; preds = %11
  %21 = add nuw i64 %13, 32
  %22 = tail call noalias ptr @av_malloc(i64 noundef %21) #5
  %.not.i.i.i = icmp eq ptr %22, null
  br i1 %.not.i.i.i, label %refstruct_pool_get_ext.exit, label %23

23:                                               ; preds = %20
  store i64 1, ptr %22, align 8, !tbaa !4
  %24 = getelementptr inbounds nuw i8, ptr %22, i64 8
  store ptr %0, ptr %24, align 8, !tbaa !4
  %25 = getelementptr inbounds nuw i8, ptr %22, i64 16
  store ptr %18, ptr %25, align 8, !tbaa !7
  %26 = getelementptr inbounds nuw i8, ptr %22, i64 24
  %27 = getelementptr inbounds nuw i8, ptr %22, i64 32
  %28 = and i32 %15, 1
  %.not12.i.i.i = icmp eq i32 %28, 0
  br i1 %.not12.i.i.i, label %29, label %av_refstruct_alloc_ext.exit.i

29:                                               ; preds = %23
  tail call void @llvm.memset.p0.i64(ptr nonnull align 1 %27, i8 0, i64 %13, i1 false)
  br label %av_refstruct_alloc_ext.exit.i

av_refstruct_alloc_ext.exit.i:                    ; preds = %29, %23
  store ptr @pool_return_entry, ptr %26, align 8, !tbaa !10
  %30 = getelementptr inbounds nuw i8, ptr %0, i64 16
  %31 = load ptr, ptr %30, align 8, !tbaa !19
  %.not54.i = icmp eq ptr %31, null
  br i1 %.not54.i, label %.critedge.thread.i, label %32

32:                                               ; preds = %av_refstruct_alloc_ext.exit.i
  %33 = getelementptr inbounds nuw i8, ptr %0, i64 8
  %34 = load ptr, ptr %33, align 8
  %35 = tail call i32 %31(ptr %34, ptr noundef nonnull %27) #5
  %36 = icmp sgt i32 %35, -1
  br i1 %36, label %.critedge.thread.i, label %37

37:                                               ; preds = %32
  %38 = getelementptr inbounds nuw i8, ptr %0, i64 56
  %39 = load i32, ptr %38, align 8, !tbaa !20
  %40 = and i32 %39, 65536
  %.not55.i = icmp eq i32 %40, 0
  br i1 %.not55.i, label %44, label %41

41:                                               ; preds = %37
  %42 = load ptr, ptr %16, align 8, !tbaa !18
  %43 = load ptr, ptr %33, align 8
  tail call void %42(ptr %43, ptr noundef nonnull %27) #5
  %.pre.i = load i32, ptr %38, align 8, !tbaa !20
  br label %44

44:                                               ; preds = %41, %37
  %45 = phi i32 [ %.pre.i, %41 ], [ %39, %37 ]
  %46 = and i32 %45, 131072
  %.not56.i = icmp eq i32 %46, 0
  br i1 %.not56.i, label %51, label %47

47:                                               ; preds = %44
  %48 = getelementptr inbounds nuw i8, ptr %0, i64 32
  %49 = load ptr, ptr %48, align 8, !tbaa !21
  %50 = load ptr, ptr %33, align 8
  tail call void %49(ptr %50, ptr noundef nonnull %27) #5
  br label %51

51:                                               ; preds = %47, %44
  tail call void @av_free(ptr noundef nonnull %22) #5
  br label %refstruct_pool_get_ext.exit

.critedge.thread.i:                               ; preds = %32, %av_refstruct_alloc_ext.exit.i, %6
  %.145.i = phi ptr [ %7, %6 ], [ %27, %av_refstruct_alloc_ext.exit.i ], [ %27, %32 ]
  %52 = getelementptr inbounds nuw i8, ptr %0, i64 64
  %53 = atomicrmw add ptr %52, i64 1 monotonic, align 8
  %54 = getelementptr inbounds nuw i8, ptr %0, i64 56
  %55 = load i32, ptr %54, align 8, !tbaa !20
  %56 = and i32 %55, 262144
  %.not57.i = icmp eq i32 %56, 0
  br i1 %.not57.i, label %refstruct_pool_get_ext.exit, label %57

57:                                               ; preds = %.critedge.thread.i
  %58 = load i64, ptr %0, align 8, !tbaa !16
  tail call void @llvm.memset.p0.i64(ptr nonnull align 1 %.145.i, i8 0, i64 %58, i1 false)
  br label %refstruct_pool_get_ext.exit

refstruct_pool_get_ext.exit:                      ; preds = %.critedge.thread.i, %57, %11, %20, %51
  %.0 = phi ptr [ null, %11 ], [ null, %20 ], [ null, %51 ], [ %.145.i, %57 ], [ %.145.i, %.critedge.thread.i ]
  ret ptr %.0
}